; Function Attrs: nounwind uwtable
define nonnull ptr @Acb_ObjCollectTfi(ptr noundef initializes((524, 528)) %0, i32 noundef %1, i32 noundef %2) local_unnamed_addr #0 {
  %4 = getelementptr inbounds nuw i8, ptr %0, i64 524
  store i32 0, ptr %4, align 4, !tbaa !27
  %5 = getelementptr i8, ptr %0, i64 260
  %.val.i = load i32, ptr %5, align 4, !tbaa !27
  %6 = icmp slt i32 %.val.i, 1
  br i1 %6, label %7, label %Acb_NtkIncTravId.exit

7:                                                ; preds = %3
  %8 = getelementptr inbounds nuw i8, ptr %0, i64 256
  %9 = getelementptr inbounds nuw i8, ptr %0, i64 112
  %.val.i.i = load i32, ptr %9, align 8, !tbaa !29
  %10 = load i32, ptr %8, align 8, !tbaa !28
  %.not.i.i.i.i = icmp slt i32 %10, %.val.i.i
  br i1 %.not.i.i.i.i, label %11, label %Vec_IntGrow.exit.i.i.i

11:                                               ; preds = %7
  %12 = getelementptr inbounds nuw i8, ptr %0, i64 264
  %13 = load ptr, ptr %12, align 8, !tbaa !21
  %.not9.i.i.i.i = icmp eq ptr %13, null
  %14 = sext i32 %.val.i.i to i64
  %15 = shl nsw i64 %14, 2
  br i1 %.not9.i.i.i.i, label %18, label %16

16:                                               ; preds = %11
  %17 = tail call ptr @realloc(ptr noundef nonnull %13, i64 noundef %15) #25
  br label %20

18:                                               ; preds = %11
  %19 = tail call noalias ptr @malloc(i64 noundef %15) #26
  br label %20

20:                                               ; preds = %18, %16
  %21 = phi ptr [ %17, %16 ], [ %19, %18 ]
  store ptr %21, ptr %12, align 8, !tbaa !21
  store i32 %.val.i.i, ptr %8, align 8, !tbaa !28
  br label %Vec_IntGrow.exit.i.i.i

Vec_IntGrow.exit.i.i.i:                           ; preds = %20, %7
  %22 = icmp sgt i32 %.val.i.i, 0
  br i1 %22, label %.lr.ph.i.i.i, label %Acb_NtkCleanObjTravs.exit.i

.lr.ph.i.i.i:                                     ; preds = %Vec_IntGrow.exit.i.i.i
  %23 = getelementptr inbounds nuw i8, ptr %0, i64 264
  %24 = load ptr, ptr %23, align 8, !tbaa !21
  %wide.trip.count.i.i.i = zext nneg i32 %.val.i.i to i64
  %25 = shl nuw nsw i64 %wide.trip.count.i.i.i, 2
  tail call void @llvm.memset.p0.i64(ptr align 4 %24, i8 0, i64 %25, i1 false), !tbaa !22
  br label %Acb_NtkCleanObjTravs.exit.i

Acb_NtkCleanObjTravs.exit.i:                      ; preds = %.lr.ph.i.i.i, %Vec_IntGrow.exit.i.i.i
  store i32 %.val.i.i, ptr %5, align 4, !tbaa !27
  br label %Acb_NtkIncTravId.exit

Acb_NtkIncTravId.exit:                            ; preds = %3, %Acb_NtkCleanObjTravs.exit.i
  %26 = getelementptr inbounds nuw i8, ptr %0, i64 96
  %27 = load i32, ptr %26, align 8, !tbaa !3
  %28 = add nsw i32 %27, 1
  store i32 %28, ptr %26, align 8, !tbaa !3
  %29 = icmp sgt i32 %1, 0
  br i1 %29, label %.preheader, label %.preheader28

.preheader28:                                     ; preds = %Acb_NtkIncTravId.exit
  %30 = getelementptr i8, ptr %0, i64 44
  %.val2629 = load i32, ptr %30, align 4, !tbaa !27
  %31 = icmp sgt i32 %.val2629, 0
  br i1 %31, label %.lr.ph, label %.critedge2

.lr.ph:                                           ; preds = %.preheader28
  %32 = getelementptr i8, ptr %0, i64 48
  br label %41

.preheader:                                       ; preds = %Acb_NtkIncTravId.exit
  %33 = getelementptr i8, ptr %0, i64 484
  %.val2531 = load i32, ptr %33, align 4, !tbaa !27
  %34 = icmp sgt i32 %.val2531, 0
  br i1 %34, label %.lr.ph33, label %.critedge

.lr.ph33:                                         ; preds = %.preheader
  %35 = getelementptr i8, ptr %0, i64 488
  br label %36

36:                                               ; preds = %.lr.ph33, %36
  %indvars.iv35 = phi i64 [ 0, %.lr.ph33 ], [ %indvars.iv.next36, %36 ]
  %.val = load ptr, ptr %35, align 8, !tbaa !21
  %37 = getelementptr inbounds nuw i32, ptr %.val, i64 %indvars.iv35
  %38 = load i32, ptr %37, align 4, !tbaa !22
  tail call void @Acb_ObjCollectTfi_rec(ptr noundef nonnull %0, i32 noundef %38, i32 noundef %2)
  %indvars.iv.next36 = add nuw nsw i64 %indvars.iv35, 1
  %.val25 = load i32, ptr %33, align 4, !tbaa !27
  %39 = sext i32 %.val25 to i64
  %40 = icmp slt i64 %indvars.iv.next36, %39
  br i1 %40, label %36, label %.critedge, !llvm.loop !30

.critedge:                                        ; preds = %36, %.preheader
  tail call void @Acb_ObjCollectTfi_rec(ptr noundef nonnull %0, i32 noundef %1, i32 noundef %2)
  br label %.critedge2

41:                                               ; preds = %.lr.ph, %41
  %indvars.iv = phi i64 [ 0, %.lr.ph ], [ %indvars.iv.next, %41 ]
  %.val27 = load ptr, ptr %32, align 8, !tbaa !21
  %42 = getelementptr inbounds nuw i32, ptr %.val27, i64 %indvars.iv
  %43 = load i32, ptr %42, align 4, !tbaa !22
  tail call void @Acb_ObjCollectTfi_rec(ptr noundef nonnull %0, i32 noundef %43, i32 noundef %2)
  %indvars.iv.next = add nuw nsw i64 %indvars.iv, 1
  %.val26 = load i32, ptr %30, align 4, !tbaa !27
  %44 = sext i32 %.val26 to i64
  %45 = icmp slt i64 %indvars.iv.next, %44
  br i1 %45, label %41, label %.critedge2, !llvm.loop !31

.critedge2:                                       ; preds = %41, %.preheader28, %.critedge
  %46 = getelementptr inbounds nuw i8, ptr %0, i64 520
  ret ptr %46
}